target datalayout = "e-m:e-p270:32:32-p271:32:32-p272:64:64-i64:64-i128:128-f80:128-n8:16:32:64-S128"
target triple = "x86_64-pc-linux-gnu"

%"class.draco::SequentialNormalAttributeDecoder" = type { %"class.draco::SequentialIntegerAttributeDecoder", %"class.draco::AttributeOctahedronTransform" }
%"class.draco::SequentialIntegerAttributeDecoder" = type { %"class.draco::SequentialAttributeDecoder", %"class.std::unique_ptr.2" }
%"class.draco::SequentialAttributeDecoder" = type { ptr, ptr, ptr, i32, %"class.std::unique_ptr" }
%"class.std::unique_ptr" = type { %"struct.std::__uniq_ptr_data" }
%"struct.std::__uniq_ptr_data" = type { %"class.std::__uniq_ptr_impl" }
%"class.std::__uniq_ptr_impl" = type { %"class.std::tuple" }
%"class.std::tuple" = type { %"struct.std::_Tuple_impl" }
%"struct.std::_Tuple_impl" = type { %"struct.std::_Head_base.1" }
%"struct.std::_Head_base.1" = type { ptr }
%"class.std::unique_ptr.2" = type { %"struct.std::__uniq_ptr_data.3" }
%"struct.std::__uniq_ptr_data.3" = type { %"class.std::__uniq_ptr_impl.4" }
%"class.std::__uniq_ptr_impl.4" = type { %"class.std::tuple.5" }
%"class.std::tuple.5" = type { %"struct.std::_Tuple_impl.6" }
%"struct.std::_Tuple_impl.6" = type { %"struct.std::_Head_base.9" }
%"struct.std::_Head_base.9" = type { ptr }
%"class.draco::AttributeOctahedronTransform" = type <{ %"class.draco::AttributeTransform", i32, [4 x i8] }>
%"class.draco::AttributeTransform" = type { ptr }
%"class.draco::PointCloudDecoder" = type { ptr, ptr, %"class.std::vector.26", %"class.std::vector.31", ptr, i8, i8, ptr }
%"class.std::vector.26" = type { %"struct.std::_Vector_base.27" }
%"struct.std::_Vector_base.27" = type { %"struct.std::_Vector_base<std::unique_ptr<draco::AttributesDecoderInterface>, std::allocator<std::unique_ptr<draco::AttributesDecoderInterface>>>::_Vector_impl" }
%"struct.std::_Vector_base<std::unique_ptr<draco::AttributesDecoderInterface>, std::allocator<std::unique_ptr<draco::AttributesDecoderInterface>>>::_Vector_impl" = type { %"struct.std::_Vector_base<std::unique_ptr<draco::AttributesDecoderInterface>, std::allocator<std::unique_ptr<draco::AttributesDecoderInterface>>>::_Vector_impl_data" }
%"struct.std::_Vector_base<std::unique_ptr<draco::AttributesDecoderInterface>, std::allocator<std::unique_ptr<draco::AttributesDecoderInterface>>>::_Vector_impl_data" = type { ptr, ptr, ptr }
%"class.std::vector.31" = type { %"struct.std::_Vector_base.32" }
%"struct.std::_Vector_base.32" = type { %"struct.std::_Vector_base<int, std::allocator<int>>::_Vector_impl" }
%"struct.std::_Vector_base<int, std::allocator<int>>::_Vector_impl" = type { %"struct.std::_Vector_base<int, std::allocator<int>>::_Vector_impl_data" }
%"struct.std::_Vector_base<int, std::allocator<int>>::_Vector_impl_data" = type { ptr, ptr, ptr }

; Function Attrs: mustprogress nounwind uwtable
define linkonce_odr noundef ptr @_ZN5draco26SequentialAttributeDecoder9attributeEv(ptr noundef nonnull align 8 dereferenceable(40) %0) #5 comdat align 2 {
  %2 = alloca ptr, align 8
  store ptr %0, ptr %2, align 8, !tbaa !21
  %3 = load ptr, ptr %2, align 8
  %4 = getelementptr inbounds nuw %"class.draco::SequentialAttributeDecoder", ptr %3, i32 0, i32 2
  %5 = load ptr, ptr %4, align 8, !tbaa !23
  ret ptr %5
}

; Function Attrs: mustprogress nounwind uwtable
define linkonce_odr noundef zeroext i16 @_ZNK5draco17PointCloudDecoder17bitstream_versionEv(ptr noundef nonnull align 8 dereferenceable(88) %0) #5 comdat align 2 {
  %2 = alloca ptr, align 8
  store ptr %0, ptr %2, align 8, !tbaa !18
  %3 = load ptr, ptr %2, align 8
  %4 = getelementptr inbounds nuw %"class.draco::PointCloudDecoder", ptr %3, i32 0, i32 5
  %5 = load i8, ptr %4, align 8, !tbaa !48
  %6 = zext i8 %5 to i16
  %7 = zext i16 %6 to i32
  %8 = shl i32 %7, 8
  %9 = getelementptr inbounds nuw %"class.draco::PointCloudDecoder", ptr %3, i32 0, i32 6
  %10 = load i8, ptr %9, align 1, !tbaa !62
  %11 = zext i8 %10 to i32
  %12 = or i32 %8, %11
  %13 = trunc i32 %12 to i16
  ret i16 %13
}

; Function Attrs: mustprogress nounwind uwtable
define linkonce_odr noundef ptr @_ZNK5draco26SequentialAttributeDecoder7decoderEv(ptr noundef nonnull align 8 dereferenceable(40) %0) #5 comdat align 2 {
  %2 = alloca ptr, align 8
  store ptr %0, ptr %2, align 8, !tbaa !21
  %3 = load ptr, ptr %2, align 8
  %4 = getelementptr inbounds nuw %"class.draco::SequentialAttributeDecoder", ptr %3, i32 0, i32 1
  %5 = load ptr, ptr %4, align 8, !tbaa !47
  ret ptr %5
}

; Function Attrs: mustprogress uwtable
define noundef zeroext i1 @_ZN5draco32SequentialNormalAttributeDecoder19DecodeIntegerValuesERKSt6vectorINS_9IndexTypeIjNS_20PointIndex_tag_type_EEESaIS4_EEPNS_13DecoderBufferE(ptr noundef nonnull align 8 dereferenceable(64) %0, ptr noundef nonnull align 1 %1, ptr noundef %2) unnamed_addr #4 align 2 {
  %4 = alloca i1, align 1
  %5 = alloca ptr, align 8
  %6 = alloca ptr, align 8
  %7 = alloca ptr, align 8
  store ptr %0, ptr %5, align 8, !tbaa !3
  store ptr %1, ptr %6, align 8, !tbaa !43
  store ptr %2, ptr %7, align 8, !tbaa !45
  %8 = load ptr, ptr %5, align 8
  %9 = call noundef ptr @_ZNK5draco26SequentialAttributeDecoder7decoderEv(ptr noundef nonnull align 8 dereferenceable(40) %8)
  %10 = call noundef zeroext i16 @_ZNK5draco17PointCloudDecoder17bitstream_versionEv(ptr noundef nonnull align 8 dereferenceable(88) %9)
  %11 = zext i16 %10 to i32
  %12 = icmp slt i32 %11, 512
  br i1 %12, label %13, label %20

13:                                               ; preds = %3
  %14 = getelementptr inbounds nuw %"class.draco::SequentialNormalAttributeDecoder", ptr %8, i32 0, i32 1
  %15 = call noundef ptr @_ZN5draco26SequentialAttributeDecoder9attributeEv(ptr noundef nonnull align 8 dereferenceable(40) %8)
  %16 = load ptr, ptr %7, align 8, !tbaa !45
  %17 = call noundef zeroext i1 @_ZN5draco28AttributeOctahedronTransform16DecodeParametersERKNS_14PointAttributeEPNS_13DecoderBufferE(ptr noundef nonnull align 8 dereferenceable(12) %14, ptr noundef nonnull align 8 dereferenceable(112) %15, ptr noundef %16)
  br i1 %17, label %19, label %18

18:                                               ; preds = %13
  store i1 false, ptr %4, align 1
  br label %24

19:                                               ; preds = %13
  br label %20

20:                                               ; preds = %19, %3
  %21 = load ptr, ptr %6, align 8, !tbaa !43
  %22 = load ptr, ptr %7, align 8, !tbaa !45
  %23 = call noundef zeroext i1 @_ZN5draco33SequentialIntegerAttributeDecoder19DecodeIntegerValuesERKSt6vectorINS_9IndexTypeIjNS_20PointIndex_tag_type_EEESaIS4_EEPNS_13DecoderBufferE(ptr noundef nonnull align 8 dereferenceable(48) %8, ptr noundef nonnull align 1 %21, ptr noundef %22)
  store i1 %23, ptr %4, align 1
  br label %24

24:                                               ; preds = %20, %18
  %25 = load i1, ptr %4, align 1
  ret i1 %25
}