; Function Attrs: mustprogress uwtable
define noundef zeroext i1 @_ZN5draco32SequentialNormalAttributeDecoder19DecodeIntegerValuesERKSt6vectorINS_9IndexTypeIjNS_20PointIndex_tag_type_EEESaIS4_EEPNS_13DecoderBufferE(ptr noundef nonnull align 8 dereferenceable(64) %0, ptr noundef nonnull align 1 %1, ptr noundef %2) unnamed_addr #3 align 2 {
  %4 = getelementptr inbounds nuw i8, ptr %0, i64 8
  %5 = load ptr, ptr %4, align 8, !tbaa !31
  %6 = getelementptr inbounds nuw i8, ptr %5, i64 72
  %7 = load i8, ptr %6, align 8, !tbaa !32
  %8 = icmp ult i8 %7, 2
  br i1 %8, label %9, label %14

9:                                                ; preds = %3
  %10 = getelementptr inbounds nuw i8, ptr %0, i64 48
  %11 = getelementptr inbounds nuw i8, ptr %0, i64 16
  %12 = load ptr, ptr %11, align 8, !tbaa !11
  %13 = tail call noundef zeroext i1 @_ZN5draco28AttributeOctahedronTransform16DecodeParametersERKNS_14PointAttributeEPNS_13DecoderBufferE(ptr noundef nonnull align 8 dereferenceable(12) %10, ptr noundef nonnull align 8 dereferenceable(112) %12, ptr noundef %2)
  br i1 %13, label %14, label %16

14:                                               ; preds = %9, %3
  %15 = tail call noundef zeroext i1 @_ZN5draco33SequentialIntegerAttributeDecoder19DecodeIntegerValuesERKSt6vectorINS_9IndexTypeIjNS_20PointIndex_tag_type_EEESaIS4_EEPNS_13DecoderBufferE(ptr noundef nonnull align 8 dereferenceable(48) %0, ptr noundef nonnull align 1 %1, ptr noundef %2)
  br label %16

16:                                               ; preds = %9, %14
  %.0 = phi i1 [ %15, %14 ], [ false, %9 ]
  ret i1 %.0
}